target datalayout = "e-m:e-p270:32:32-p271:32:32-p272:64:64-i64:64-i128:128-f80:128-n8:16:32:64-S128"
target triple = "x86_64-pc-linux-gnu"

%struct.lexbor_dobject_t = type { ptr, ptr, i64, i64 }

; Function Attrs: nounwind uwtable
define internal i64 @lexbor_mem_align(i64 noundef %0) #0 {
  %2 = alloca i64, align 8
  store i64 %0, ptr %2, align 8
  %3 = load i64, ptr %2, align 8
  %4 = urem i64 %3, 8
  %5 = icmp ne i64 %4, 0
  br i1 %5, label %6, label %12

6:                                                ; preds = %1
  %7 = load i64, ptr %2, align 8
  %8 = load i64, ptr %2, align 8
  %9 = urem i64 %8, 8
  %10 = sub i64 8, %9
  %11 = add i64 %7, %10
  br label %14

12:                                               ; preds = %1
  %13 = load i64, ptr %2, align 8
  br label %14

14:                                               ; preds = %12, %6
  %15 = phi i64 [ %11, %6 ], [ %13, %12 ]
  ret i64 %15
}

; Function Attrs: nounwind uwtable
define hidden i32 @lexbor_dobject_init(ptr noundef %0, i64 noundef %1, i64 noundef %2) #0 {
  %4 = alloca i32, align 4
  %5 = alloca ptr, align 8
  %6 = alloca i64, align 8
  %7 = alloca i64, align 8
  %8 = alloca i32, align 4
  store ptr %0, ptr %5, align 8
  store i64 %1, ptr %6, align 8
  store i64 %2, ptr %7, align 8
  %9 = load ptr, ptr %5, align 8
  %10 = icmp eq ptr %9, null
  br i1 %10, label %11, label %12

11:                                               ; preds = %3
  store i32 3, ptr %4, align 4
  br label %56

12:                                               ; preds = %3
  %13 = load i64, ptr %6, align 8
  %14 = icmp eq i64 %13, 0
  br i1 %14, label %18, label %15

15:                                               ; preds = %12
  %16 = load i64, ptr %7, align 8
  %17 = icmp eq i64 %16, 0
  br i1 %17, label %18, label %19

18:                                               ; preds = %15, %12
  store i32 9, ptr %4, align 4
  br label %56

19:                                               ; preds = %15
  %20 = load ptr, ptr %5, align 8
  %21 = getelementptr inbounds %struct.lexbor_dobject_t, ptr %20, i32 0, i32 2
  store i64 0, ptr %21, align 8
  %22 = load i64, ptr %7, align 8
  %23 = load ptr, ptr %5, align 8
  %24 = getelementptr inbounds %struct.lexbor_dobject_t, ptr %23, i32 0, i32 3
  store i64 %22, ptr %24, align 8
  %25 = call ptr @lexbor_mem_create()
  %26 = load ptr, ptr %5, align 8
  %27 = getelementptr inbounds %struct.lexbor_dobject_t, ptr %26, i32 0, i32 0
  store ptr %25, ptr %27, align 8
  %28 = load ptr, ptr %5, align 8
  %29 = getelementptr inbounds %struct.lexbor_dobject_t, ptr %28, i32 0, i32 0
  %30 = load ptr, ptr %29, align 8
  %31 = load i64, ptr %6, align 8
  %32 = load ptr, ptr %5, align 8
  %33 = getelementptr inbounds %struct.lexbor_dobject_t, ptr %32, i32 0, i32 3
  %34 = load i64, ptr %33, align 8
  %35 = mul i64 %31, %34
  %36 = call i64 @lexbor_mem_align(i64 noundef %35)
  %37 = call i32 @lexbor_mem_init(ptr noundef %30, i64 noundef %36)
  store i32 %37, ptr %8, align 4
  %38 = load i32, ptr %8, align 4
  %39 = icmp ne i32 %38, 0
  br i1 %39, label %40, label %42

40:                                               ; preds = %19
  %41 = load i32, ptr %8, align 4
  store i32 %41, ptr %4, align 4
  br label %56

42:                                               ; preds = %19
  %43 = call ptr @lexbor_array_create()
  %44 = load ptr, ptr %5, align 8
  %45 = getelementptr inbounds %struct.lexbor_dobject_t, ptr %44, i32 0, i32 1
  store ptr %43, ptr %45, align 8
  %46 = load ptr, ptr %5, align 8
  %47 = getelementptr inbounds %struct.lexbor_dobject_t, ptr %46, i32 0, i32 1
  %48 = load ptr, ptr %47, align 8
  %49 = load i64, ptr %6, align 8
  %50 = call i32 @lexbor_array_init(ptr noundef %48, i64 noundef %49)
  store i32 %50, ptr %8, align 4
  %51 = load i32, ptr %8, align 4
  %52 = icmp ne i32 %51, 0
  br i1 %52, label %53, label %55

53:                                               ; preds = %42
  %54 = load i32, ptr %8, align 4
  store i32 %54, ptr %4, align 4
  br label %56

55:                                               ; preds = %42
  store i32 0, ptr %4, align 4
  br label %56

56:                                               ; preds = %55, %53, %40, %18, %11
  %57 = load i32, ptr %4, align 4
  ret i32 %57
}