; Function Attrs: nounwind uwtable
define hidden i32 @lexbor_dobject_init(ptr noundef %0, i64 noundef %1, i64 noundef %2) local_unnamed_addr #0 {
  %4 = icmp eq ptr %0, null
  br i1 %4, label %20, label %5

5:                                                ; preds = %3
  %6 = icmp eq i64 %1, 0
  %7 = icmp eq i64 %2, 0
  %or.cond = or i1 %6, %7
  br i1 %or.cond, label %20, label %8

8:                                                ; preds = %5
  %9 = getelementptr inbounds i8, ptr %0, i64 16
  store i64 0, ptr %9, align 8
  %10 = getelementptr inbounds i8, ptr %0, i64 24
  store i64 %2, ptr %10, align 8
  %11 = tail call ptr @lexbor_mem_create() #6
  store ptr %11, ptr %0, align 8
  %12 = load i64, ptr %10, align 8
  %13 = mul i64 %12, %1
  %.biased.i = add i64 %13, 7
  %14 = and i64 %.biased.i, -8
  %15 = tail call i32 @lexbor_mem_init(ptr noundef %11, i64 noundef %14) #6
  %.not = icmp eq i32 %15, 0
  br i1 %.not, label %16, label %20

16:                                               ; preds = %8
  %17 = tail call ptr @lexbor_array_create() #6
  %18 = getelementptr inbounds i8, ptr %0, i64 8
  store ptr %17, ptr %18, align 8
  %19 = tail call i32 @lexbor_array_init(ptr noundef %17, i64 noundef %1) #6
  br label %20

20:                                               ; preds = %16, %8, %5, %3
  %.0 = phi i32 [ 3, %3 ], [ 9, %5 ], [ %15, %8 ], [ %19, %16 ]
  ret i32 %.0
}